; Function Attrs: mustprogress uwtable
define hidden void @_ZN6Assimp15ColladaExporter13CreateNodeIdsEPK6aiNode(ptr noundef nonnull align 8 dereferenceable(1248) %0, ptr noundef %1) local_unnamed_addr #0 align 2 personality ptr @__gxx_personality_v0 {
  %3 = alloca %"class.std::__cxx11::basic_string", align 8
  call void @_ZN6Assimp15ColladaExporter15GetNodeUniqueIdB5cxx11EPK6aiNode(ptr dead_on_unwind nonnull writable sret(%"class.std::__cxx11::basic_string") align 8 %3, ptr noundef nonnull align 8 dereferenceable(1248) %0, ptr noundef %1)
  %4 = load ptr, ptr %3, align 8
  %5 = getelementptr inbounds nuw i8, ptr %3, i64 16
  %6 = icmp eq ptr %4, %5
  br i1 %6, label %_ZNKSt7__cxx1112basic_stringIcSt11char_traitsIcESaIcEE11_M_is_localEv.exit.thread.i.i, label %_ZNKSt7__cxx1112basic_stringIcSt11char_traitsIcESaIcEE11_M_is_localEv.exit.i.i

_ZNKSt7__cxx1112basic_stringIcSt11char_traitsIcESaIcEE11_M_is_localEv.exit.thread.i.i: ; preds = %2
  %7 = getelementptr inbounds nuw i8, ptr %3, i64 8
  %8 = load i64, ptr %7, align 8
  %9 = icmp ult i64 %8, 16
  call void @llvm.assume(i1 %9)
  br label %_ZNSt7__cxx1112basic_stringIcSt11char_traitsIcESaIcEED2Ev.exit

_ZNKSt7__cxx1112basic_stringIcSt11char_traitsIcESaIcEE11_M_is_localEv.exit.i.i: ; preds = %2
  %10 = load i64, ptr %5, align 8
  %11 = add i64 %10, 1
  call void @_ZdlPvm(ptr noundef %4, i64 noundef %11) #29
  br label %_ZNSt7__cxx1112basic_stringIcSt11char_traitsIcESaIcEED2Ev.exit

_ZNSt7__cxx1112basic_stringIcSt11char_traitsIcESaIcEED2Ev.exit: ; preds = %_ZNKSt7__cxx1112basic_stringIcSt11char_traitsIcESaIcEE11_M_is_localEv.exit.thread.i.i, %_ZNKSt7__cxx1112basic_stringIcSt11char_traitsIcESaIcEE11_M_is_localEv.exit.i.i
  %12 = getelementptr inbounds nuw i8, ptr %1, i64 1104
  %13 = load i32, ptr %12, align 8
  %.not = icmp eq i32 %13, 0
  br i1 %.not, label %._crit_edge, label %.lr.ph

.lr.ph:                                           ; preds = %_ZNSt7__cxx1112basic_stringIcSt11char_traitsIcESaIcEED2Ev.exit
  %14 = getelementptr inbounds nuw i8, ptr %1, i64 1112
  br label %15

._crit_edge:                                      ; preds = %15, %_ZNSt7__cxx1112basic_stringIcSt11char_traitsIcESaIcEED2Ev.exit
  ret void

15:                                               ; preds = %.lr.ph, %15
  %.06 = phi i64 [ 0, %.lr.ph ], [ %19, %15 ]
  %16 = load ptr, ptr %14, align 8
  %17 = getelementptr inbounds nuw ptr, ptr %16, i64 %.06
  %18 = load ptr, ptr %17, align 8
  call void @_ZN6Assimp15ColladaExporter13CreateNodeIdsEPK6aiNode(ptr noundef nonnull align 8 dereferenceable(1248) %0, ptr noundef %18)
  %19 = add nuw nsw i64 %.06, 1
  %20 = load i32, ptr %12, align 8
  %21 = zext i32 %20 to i64
  %22 = icmp samesign ult i64 %19, %21
  br i1 %22, label %15, label %._crit_edge, !llvm.loop !51
}